target datalayout = "e-m:e-p270:32:32-p271:32:32-p272:64:64-i64:64-i128:128-f80:128-n8:16:32:64-S128"
target triple = "x86_64-pc-linux-gnu"

@.str.2 = private unnamed_addr constant [3 x i8] c"rb\00", align 1
@.str.435 = private unnamed_addr constant [30 x i8] c"SDL_GAMECONTROLLERCONFIG_FILE\00", align 1
@.str.436 = private unnamed_addr constant [25 x i8] c"SDL_GAMECONTROLLERCONFIG\00", align 1
@SDL_allowed_gamepads = internal global { ptr, i32, i32, ptr, ptr, i32, i32, ptr, i32, [4 x i8], ptr, i8, [7 x i8] } { ptr @.str.437, i32 0, i32 0, ptr null, ptr null, i32 0, i32 0, ptr null, i32 0, [4 x i8] zeroinitializer, ptr null, i8 0, [7 x i8] zeroinitializer }, align 8
@SDL_ignored_gamepads = internal global { ptr, i32, i32, ptr, ptr, i32, i32, ptr, i32, [4 x i8], ptr, i8, [7 x i8] } { ptr @.str.439, i32 0, i32 0, ptr null, ptr null, i32 0, i32 0, ptr null, i32 0, [4 x i8] zeroinitializer, ptr null, i8 0, [7 x i8] zeroinitializer }, align 8

; Function Attrs: nounwind uwtable
define internal void @SDL_LoadGamepadHints() #0 {
  %1 = alloca ptr, align 8
  %2 = alloca ptr, align 8
  %3 = alloca ptr, align 8
  %4 = alloca ptr, align 8
  call void @llvm.lifetime.start.p0(i64 8, ptr %1) #8
  %5 = call ptr @SDL_GetHint_REAL(ptr noundef @.str.436)
  store ptr %5, ptr %1, align 8
  %6 = load ptr, ptr %1, align 8
  %7 = icmp ne ptr %6, null
  br i1 %7, label %8, label %40

8:                                                ; preds = %0
  %9 = load ptr, ptr %1, align 8
  %10 = getelementptr inbounds i8, ptr %9, i64 0
  %11 = load i8, ptr %10, align 1
  %12 = sext i8 %11 to i32
  %13 = icmp ne i32 %12, 0
  br i1 %13, label %14, label %40

14:                                               ; preds = %8
  call void @llvm.lifetime.start.p0(i64 8, ptr %2) #8
  %15 = load ptr, ptr %1, align 8
  %16 = call noalias ptr @SDL_strdup_REAL(ptr noundef %15)
  store ptr %16, ptr %2, align 8
  call void @llvm.lifetime.start.p0(i64 8, ptr %3) #8
  %17 = load ptr, ptr %2, align 8
  store ptr %17, ptr %3, align 8
  call void @PushMappingChangeTracking()
  br label %18

18:                                               ; preds = %37, %14
  %19 = load ptr, ptr %3, align 8
  %20 = icmp ne ptr %19, null
  br i1 %20, label %21, label %38

21:                                               ; preds = %18
  call void @llvm.lifetime.start.p0(i64 8, ptr %4) #8
  store ptr null, ptr %4, align 8
  %22 = load ptr, ptr %3, align 8
  %23 = call ptr @SDL_strchr_REAL(ptr noundef %22, i32 noundef 10)
  store ptr %23, ptr %4, align 8
  %24 = load ptr, ptr %4, align 8
  %25 = icmp ne ptr %24, null
  br i1 %25, label %26, label %28

26:                                               ; preds = %21
  %27 = load ptr, ptr %4, align 8
  store i8 0, ptr %27, align 1
  br label %28

28:                                               ; preds = %26, %21
  %29 = load ptr, ptr %3, align 8
  %30 = call i32 @SDL_PrivateAddGamepadMapping(ptr noundef %29, i32 noundef 2)
  %31 = load ptr, ptr %4, align 8
  %32 = icmp ne ptr %31, null
  br i1 %32, label %33, label %36

33:                                               ; preds = %28
  %34 = load ptr, ptr %4, align 8
  %35 = getelementptr inbounds i8, ptr %34, i64 1
  store ptr %35, ptr %3, align 8
  br label %37

36:                                               ; preds = %28
  store ptr null, ptr %3, align 8
  br label %37

37:                                               ; preds = %36, %33
  call void @llvm.lifetime.end.p0(i64 8, ptr %4) #8
  br label %18, !llvm.loop !27

38:                                               ; preds = %18
  call void @PopMappingChangeTracking()
  %39 = load ptr, ptr %2, align 8
  call void @SDL_free_REAL(ptr noundef %39)
  call void @llvm.lifetime.end.p0(i64 8, ptr %3) #8
  call void @llvm.lifetime.end.p0(i64 8, ptr %2) #8
  br label %40

40:                                               ; preds = %38, %8, %0
  call void @llvm.lifetime.end.p0(i64 8, ptr %1) #8
  ret void
}

; Function Attrs: nounwind uwtable
define hidden i32 @SDL_AddGamepadMappingsFromFile_REAL(ptr noundef %0) #0 {
  %2 = alloca ptr, align 8
  store ptr %0, ptr %2, align 8
  %3 = load ptr, ptr %2, align 8
  %4 = call ptr @SDL_IOFromFile_REAL(ptr noundef %3, ptr noundef @.str.2)
  %5 = call i32 @SDL_AddGamepadMappingsFromIO_REAL(ptr noundef %4, i1 noundef zeroext true)
  ret i32 %5
}

; Function Attrs: nounwind uwtable
define internal zeroext i1 @SDL_GetGamepadMappingFilePath(ptr noundef %0, i64 noundef %1) #0 {
  %3 = alloca i1, align 1
  %4 = alloca ptr, align 8
  %5 = alloca i64, align 8
  %6 = alloca ptr, align 8
  %7 = alloca i32, align 4
  store ptr %0, ptr %4, align 8
  store i64 %1, ptr %5, align 8
  call void @llvm.lifetime.start.p0(i64 8, ptr %6) #8
  %8 = call ptr @SDL_GetHint_REAL(ptr noundef @.str.435)
  store ptr %8, ptr %6, align 8
  %9 = load ptr, ptr %6, align 8
  %10 = icmp ne ptr %9, null
  br i1 %10, label %11, label %23

11:                                               ; preds = %2
  %12 = load ptr, ptr %6, align 8
  %13 = load i8, ptr %12, align 1
  %14 = sext i8 %13 to i32
  %15 = icmp ne i32 %14, 0
  br i1 %15, label %16, label %23

16:                                               ; preds = %11
  %17 = load ptr, ptr %4, align 8
  %18 = load ptr, ptr %6, align 8
  %19 = load i64, ptr %5, align 8
  %20 = call i64 @SDL_strlcpy_REAL(ptr noundef %17, ptr noundef %18, i64 noundef %19)
  %21 = load i64, ptr %5, align 8
  %22 = icmp ult i64 %20, %21
  store i1 %22, ptr %3, align 1
  store i32 1, ptr %7, align 4
  br label %24

23:                                               ; preds = %11, %2
  store i1 false, ptr %3, align 1
  store i32 1, ptr %7, align 4
  br label %24

24:                                               ; preds = %23, %16
  call void @llvm.lifetime.end.p0(i64 8, ptr %6) #8
  %25 = load i1, ptr %3, align 1
  ret i1 %25
}

; Function Attrs: nounwind uwtable
define hidden zeroext i1 @SDL_InitGamepadMappings() #0 {
  %1 = alloca [1024 x i8], align 16
  %2 = alloca i32, align 4
  %3 = alloca ptr, align 8
  call void @llvm.lifetime.start.p0(i64 1024, ptr %1) #8
  call void @llvm.lifetime.start.p0(i64 4, ptr %2) #8
  store i32 0, ptr %2, align 4
  call void @llvm.lifetime.start.p0(i64 8, ptr %3) #8
  store ptr null, ptr %3, align 8
  call void @SDL_AssertJoysticksLocked()
  call void @PushMappingChangeTracking()
  %4 = load i32, ptr %2, align 4
  %5 = sext i32 %4 to i64
  %6 = getelementptr inbounds [317 x ptr], ptr @s_GamepadMappings, i64 0, i64 %5
  %7 = load ptr, ptr %6, align 8
  store ptr %7, ptr %3, align 8
  br label %8

8:                                                ; preds = %11, %0
  %9 = load ptr, ptr %3, align 8
  %10 = icmp ne ptr %9, null
  br i1 %10, label %11, label %20

11:                                               ; preds = %8
  %12 = load ptr, ptr %3, align 8
  %13 = call i32 @SDL_PrivateAddGamepadMapping(ptr noundef %12, i32 noundef 0)
  %14 = load i32, ptr %2, align 4
  %15 = add nsw i32 %14, 1
  store i32 %15, ptr %2, align 4
  %16 = load i32, ptr %2, align 4
  %17 = sext i32 %16 to i64
  %18 = getelementptr inbounds [317 x ptr], ptr @s_GamepadMappings, i64 0, i64 %17
  %19 = load ptr, ptr %18, align 8
  store ptr %19, ptr %3, align 8
  br label %8, !llvm.loop !20

20:                                               ; preds = %8
  %21 = getelementptr inbounds [1024 x i8], ptr %1, i64 0, i64 0
  %22 = call zeroext i1 @SDL_GetGamepadMappingFilePath(ptr noundef %21, i64 noundef 1024)
  br i1 %22, label %23, label %26

23:                                               ; preds = %20
  %24 = getelementptr inbounds [1024 x i8], ptr %1, i64 0, i64 0
  %25 = call i32 @SDL_AddGamepadMappingsFromFile_REAL(ptr noundef %24)
  br label %26

26:                                               ; preds = %23, %20
  call void @SDL_LoadGamepadHints()
  call void @SDL_LoadVIDPIDList(ptr noundef @SDL_allowed_gamepads)
  call void @SDL_LoadVIDPIDList(ptr noundef @SDL_ignored_gamepads)
  call void @PopMappingChangeTracking()
  call void @llvm.lifetime.end.p0(i64 8, ptr %3) #8
  call void @llvm.lifetime.end.p0(i64 4, ptr %2) #8
  call void @llvm.lifetime.end.p0(i64 1024, ptr %1) #8
  ret i1 true
}