; Function Attrs: nounwind uwtable
define hidden noundef zeroext i1 @SDL_InitGamepadMappings() local_unnamed_addr #0 {
  %1 = alloca [1024 x i8], align 16
  call void @llvm.lifetime.start.p0(i64 1024, ptr nonnull %1) #10
  tail call void @SDL_AssertJoysticksLocked() #10
  tail call fastcc void @PushMappingChangeTracking()
  br label %2

2:                                                ; preds = %0, %2
  %indvars.iv = phi i64 [ 0, %0 ], [ %indvars.iv.next, %2 ]
  %.08 = phi ptr [ @.str.119, %0 ], [ %5, %2 ]
  %3 = tail call fastcc i32 @SDL_PrivateAddGamepadMapping(ptr noundef nonnull %.08, i32 noundef 0)
  %indvars.iv.next = add nuw nsw i64 %indvars.iv, 1
  %4 = getelementptr inbounds nuw [317 x ptr], ptr @s_GamepadMappings, i64 0, i64 %indvars.iv.next
  %5 = load ptr, ptr %4, align 8
  %.not = icmp eq i64 %indvars.iv.next, 316
  br i1 %.not, label %6, label %2, !llvm.loop !20

6:                                                ; preds = %2
  %7 = tail call ptr @SDL_GetHint_REAL(ptr noundef nonnull @.str.435) #10
  %.not.i = icmp eq ptr %7, null
  br i1 %.not.i, label %SDL_GetGamepadMappingFilePath.exit.thread, label %8

8:                                                ; preds = %6
  %9 = load i8, ptr %7, align 1
  %.not7.i = icmp eq i8 %9, 0
  br i1 %.not7.i, label %SDL_GetGamepadMappingFilePath.exit.thread, label %SDL_GetGamepadMappingFilePath.exit

SDL_GetGamepadMappingFilePath.exit:               ; preds = %8
  %10 = call i64 @SDL_strlcpy_REAL(ptr noundef nonnull %1, ptr noundef nonnull %7, i64 noundef 1024) #10
  %11 = icmp ult i64 %10, 1024
  br i1 %11, label %12, label %SDL_GetGamepadMappingFilePath.exit.thread

12:                                               ; preds = %SDL_GetGamepadMappingFilePath.exit
  %13 = call ptr @SDL_IOFromFile_REAL(ptr noundef nonnull %1, ptr noundef nonnull @.str.2) #10
  %14 = call i32 @SDL_AddGamepadMappingsFromIO_REAL(ptr noundef %13, i1 noundef zeroext true)
  br label %SDL_GetGamepadMappingFilePath.exit.thread

SDL_GetGamepadMappingFilePath.exit.thread:        ; preds = %6, %8, %12, %SDL_GetGamepadMappingFilePath.exit
  %15 = call ptr @SDL_GetHint_REAL(ptr noundef nonnull @.str.436) #10
  %.not.i5 = icmp eq ptr %15, null
  br i1 %.not.i5, label %SDL_LoadGamepadHints.exit, label %16

16:                                               ; preds = %SDL_GetGamepadMappingFilePath.exit.thread
  %17 = load i8, ptr %15, align 1
  %.not15.i = icmp eq i8 %17, 0
  br i1 %.not15.i, label %SDL_LoadGamepadHints.exit, label %18

18:                                               ; preds = %16
  %19 = call noalias ptr @SDL_strdup_REAL(ptr noundef nonnull %15) #10
  call fastcc void @PushMappingChangeTracking()
  %.not1618.i = icmp eq ptr %19, null
  br i1 %.not1618.i, label %._crit_edge.i, label %.lr.ph.i.preheader

.lr.ph.i.preheader:                               ; preds = %18
  %20 = call ptr @SDL_strchr_REAL(ptr noundef nonnull %19, i32 noundef 10) #10
  %.not17.i9 = icmp eq ptr %20, null
  br i1 %.not17.i9, label %._crit_edge.loopexit.i, label %.lr.ph.i

.lr.ph.i:                                         ; preds = %.lr.ph.i.preheader, %.lr.ph.i
  %21 = phi ptr [ %24, %.lr.ph.i ], [ %20, %.lr.ph.i.preheader ]
  %.019.i10 = phi ptr [ %23, %.lr.ph.i ], [ %19, %.lr.ph.i.preheader ]
  store i8 0, ptr %21, align 1
  %22 = call fastcc i32 @SDL_PrivateAddGamepadMapping(ptr noundef nonnull %.019.i10, i32 noundef 2)
  %23 = getelementptr inbounds nuw i8, ptr %21, i64 1
  %24 = call ptr @SDL_strchr_REAL(ptr noundef nonnull %23, i32 noundef 10) #10
  %.not17.i = icmp eq ptr %24, null
  br i1 %.not17.i, label %._crit_edge.loopexit.i, label %.lr.ph.i, !llvm.loop !21

._crit_edge.loopexit.i:                           ; preds = %.lr.ph.i, %.lr.ph.i.preheader
  %.019.i.lcssa = phi ptr [ %19, %.lr.ph.i.preheader ], [ %23, %.lr.ph.i ]
  %25 = call fastcc i32 @SDL_PrivateAddGamepadMapping(ptr noundef nonnull %.019.i.lcssa, i32 noundef 2)
  br label %._crit_edge.i

._crit_edge.i:                                    ; preds = %._crit_edge.loopexit.i, %18
  call fastcc void @PopMappingChangeTracking()
  call void @SDL_free_REAL(ptr noundef %19) #10
  br label %SDL_LoadGamepadHints.exit

SDL_LoadGamepadHints.exit:                        ; preds = %SDL_GetGamepadMappingFilePath.exit.thread, %16, %._crit_edge.i
  call void @SDL_LoadVIDPIDList(ptr noundef nonnull @SDL_allowed_gamepads) #10
  call void @SDL_LoadVIDPIDList(ptr noundef nonnull @SDL_ignored_gamepads) #10
  call fastcc void @PopMappingChangeTracking()
  call void @llvm.lifetime.end.p0(i64 1024, ptr nonnull %1) #10
  ret i1 true
}